; Function Attrs: mustprogress uwtable
define hidden void @_ZNK17CirclesGridFinder9drawBasisERKSt6vectorIN2cv6Point_IfEESaIS3_EES3_RNS1_3MatE(ptr nocapture noundef nonnull readnone align 8 dereferenceable(173) %0, ptr nocapture noundef nonnull readonly align 8 dereferenceable(24) %1, <2 x float> %2, ptr noundef nonnull align 8 dereferenceable(96) %3) local_unnamed_addr #14 align 2 personality ptr @__gxx_personality_v0 {
  %5 = alloca %"class.cv::_InputOutputArray", align 8
  %6 = alloca %"class.cv::Scalar_", align 8
  %7 = getelementptr inbounds i8, ptr %1, i64 8
  %8 = load ptr, ptr %7, align 8
  %9 = load ptr, ptr %1, align 8
  %.not = icmp eq ptr %8, %9
  br i1 %.not, label %._crit_edge, label %.lr.ph

.lr.ph:                                           ; preds = %4
  %10 = getelementptr inbounds i8, ptr %5, i64 8
  %11 = getelementptr inbounds i8, ptr %5, i64 16
  %.sroa.018.0.vec.extract20 = extractelement <2 x float> %2, i64 0
  %12 = shufflevector <2 x float> %2, <2 x float> poison, <4 x i32> <i32 0, i32 poison, i32 poison, i32 poison>
  %13 = tail call noundef i32 @llvm.x86.sse.cvtss2si(<4 x float> %12)
  %.sroa.018.4.vec.extract22 = extractelement <2 x float> %2, i64 1
  %14 = shufflevector <2 x float> %2, <2 x float> poison, <4 x i32> <i32 1, i32 poison, i32 poison, i32 poison>
  %15 = tail call noundef i32 @llvm.x86.sse.cvtss2si(<4 x float> %14)
  %.sroa.2.0.insert.ext.i = zext i32 %15 to i64
  %.sroa.2.0.insert.shift.i = shl nuw i64 %.sroa.2.0.insert.ext.i, 32
  %.sroa.0.0.insert.ext.i = zext i32 %13 to i64
  %.sroa.0.0.insert.insert.i = or disjoint i64 %.sroa.2.0.insert.shift.i, %.sroa.0.0.insert.ext.i
  %16 = getelementptr inbounds i8, ptr %6, i64 8
  %17 = getelementptr inbounds i8, ptr %6, i64 16
  br label %18

18:                                               ; preds = %.lr.ph, %18
  %19 = phi ptr [ %9, %.lr.ph ], [ %33, %18 ]
  %.023 = phi i64 [ 0, %.lr.ph ], [ %31, %18 ]
  %20 = getelementptr inbounds %"class.cv::Point_", ptr %19, i64 %.023
  %21 = load float, ptr %20, align 4
  %.sroa_idx = getelementptr inbounds i8, ptr %20, i64 4
  %22 = load float, ptr %.sroa_idx, align 4
  store i64 0, ptr %11, align 8
  store i32 50397184, ptr %5, align 8
  store ptr %3, ptr %10, align 8
  %23 = fadd float %.sroa.018.0.vec.extract20, %21
  %24 = fadd float %.sroa.018.4.vec.extract22, %22
  %25 = insertelement <4 x float> poison, float %23, i64 0
  %26 = call noundef i32 @llvm.x86.sse.cvtss2si(<4 x float> %25)
  %27 = insertelement <4 x float> poison, float %24, i64 0
  %28 = call noundef i32 @llvm.x86.sse.cvtss2si(<4 x float> %27)
  %.sroa.2.0.insert.ext.i12 = zext i32 %28 to i64
  %.sroa.2.0.insert.shift.i13 = shl nuw i64 %.sroa.2.0.insert.ext.i12, 32
  %.sroa.0.0.insert.ext.i14 = zext i32 %26 to i64
  %.sroa.0.0.insert.insert.i15 = or disjoint i64 %.sroa.2.0.insert.shift.i13, %.sroa.0.0.insert.ext.i14
  %29 = mul i64 %.023, 255
  %30 = uitofp i64 %29 to double
  store double 0.000000e+00, ptr %6, align 8
  store double %30, ptr %16, align 8
  call void @llvm.memset.p0.i64(ptr noundef nonnull align 8 dereferenceable(16) %17, i8 0, i64 16, i1 false)
  call void @_ZN2cv4lineERKNS_17_InputOutputArrayENS_6Point_IiEES4_RKNS_7Scalar_IdEEiii(ptr noundef nonnull align 8 dereferenceable(24) %5, i64 %.sroa.0.0.insert.insert.i, i64 %.sroa.0.0.insert.insert.i15, ptr noundef nonnull align 8 dereferenceable(32) %6, i32 noundef 2, i32 noundef 8, i32 noundef 0)
  %31 = add nuw i64 %.023, 1
  %32 = load ptr, ptr %7, align 8
  %33 = load ptr, ptr %1, align 8
  %34 = ptrtoint ptr %32 to i64
  %35 = ptrtoint ptr %33 to i64
  %36 = sub i64 %34, %35
  %37 = ashr exact i64 %36, 3
  %38 = icmp ult i64 %31, %37
  br i1 %38, label %18, label %._crit_edge, !llvm.loop !254

._crit_edge:                                      ; preds = %18, %4
  ret void
}